; Function Attrs: nounwind uwtable
define dso_local void @punsubscribeCommand(ptr noundef %0) local_unnamed_addr #2 {
  %2 = getelementptr inbounds nuw i8, ptr %0, i64 88
  %3 = load i32, ptr %2, align 8, !tbaa !95
  %4 = icmp eq i32 %3, 1
  br i1 %4, label %7, label %.preheader

.preheader:                                       ; preds = %1
  %5 = icmp sgt i32 %3, 1
  br i1 %5, label %.lr.ph, label %.loopexit

.lr.ph:                                           ; preds = %.preheader
  %6 = getelementptr inbounds nuw i8, ptr %0, i64 96
  br label %9

7:                                                ; preds = %1
  %8 = tail call i32 @pubsubUnsubscribeAllPatterns(ptr noundef nonnull %0, i32 noundef 1)
  br label %.loopexit

9:                                                ; preds = %.lr.ph, %9
  %indvars.iv = phi i64 [ 1, %.lr.ph ], [ %indvars.iv.next, %9 ]
  %10 = load ptr, ptr %6, align 8, !tbaa !96
  %11 = getelementptr inbounds nuw ptr, ptr %10, i64 %indvars.iv
  %12 = load ptr, ptr %11, align 8, !tbaa !33
  %13 = tail call i32 @pubsubUnsubscribePattern(ptr noundef nonnull %0, ptr noundef %12, i32 noundef 1)
  %indvars.iv.next = add nuw nsw i64 %indvars.iv, 1
  %14 = load i32, ptr %2, align 8, !tbaa !95
  %15 = sext i32 %14 to i64
  %16 = icmp slt i64 %indvars.iv.next, %15
  br i1 %16, label %9, label %.loopexit, !llvm.loop !100

.loopexit:                                        ; preds = %9, %.preheader, %7
  %17 = getelementptr inbounds nuw i8, ptr %0, i64 568
  %18 = load ptr, ptr %17, align 8, !tbaa !5
  %19 = getelementptr inbounds nuw i8, ptr %18, i64 24
  %20 = load i64, ptr %19, align 8, !tbaa !28
  %21 = getelementptr inbounds nuw i8, ptr %18, i64 32
  %22 = load i64, ptr %21, align 8, !tbaa !28
  %23 = getelementptr inbounds nuw i8, ptr %0, i64 576
  %24 = load ptr, ptr %23, align 8, !tbaa !29
  %25 = getelementptr inbounds nuw i8, ptr %24, i64 24
  %26 = load i64, ptr %25, align 8, !tbaa !28
  %27 = getelementptr inbounds nuw i8, ptr %24, i64 32
  %28 = load i64, ptr %27, align 8, !tbaa !28
  %29 = add i64 %22, %20
  %30 = add i64 %29, %26
  %31 = add i64 %30, %28
  %32 = trunc i64 %31 to i32
  %33 = getelementptr inbounds nuw i8, ptr %0, i64 584
  %34 = load ptr, ptr %33, align 8, !tbaa !30
  %35 = getelementptr inbounds nuw i8, ptr %34, i64 24
  %36 = load i64, ptr %35, align 8, !tbaa !28
  %37 = getelementptr inbounds nuw i8, ptr %34, i64 32
  %38 = load i64, ptr %37, align 8, !tbaa !28
  %39 = add i64 %38, %36
  %40 = trunc i64 %39 to i32
  %41 = sub i32 0, %32
  %42 = icmp eq i32 %40, %41
  br i1 %42, label %43, label %unmarkClientAsPubSub.exit

43:                                               ; preds = %.loopexit
  %44 = getelementptr inbounds nuw i8, ptr %0, i64 8
  %45 = load i64, ptr %44, align 8, !tbaa !31
  %46 = and i64 %45, 262144
  %.not.i = icmp eq i64 %46, 0
  br i1 %.not.i, label %unmarkClientAsPubSub.exit, label %47

47:                                               ; preds = %43
  %48 = and i64 %45, -262145
  store i64 %48, ptr %44, align 8, !tbaa !31
  %49 = load i32, ptr getelementptr inbounds nuw (i8, ptr @server, i64 7880), align 8, !tbaa !66
  %50 = add i32 %49, -1
  store i32 %50, ptr getelementptr inbounds nuw (i8, ptr @server, i64 7880), align 8, !tbaa !66
  br label %unmarkClientAsPubSub.exit

unmarkClientAsPubSub.exit:                        ; preds = %47, %43, %.loopexit
  ret void
}